Open Watcom Linker Version 2.0 beta Jul 11 2023 02:28:07 (32-bit)
Copyright (c) 2002-2023 The Open Watcom Contributors. All Rights Reserved.
Portions Copyright (c) 1985-2002 Sybase, Inc. All Rights Reserved.
Created on:       23/08/02 21:01:12
Warning! W1027: file build/kernel/malloc.o(/home/liamgatter/dev/C/raptor-os/src/kernel/malloc.c): redefinition of _free_heap_blocks ignored
Warning! W1027: file build/kernel/malloc.o(/home/liamgatter/dev/C/raptor-os/src/kernel/malloc.c): redefinition of _heap_blocks ignored
Warning! W1027: file build/kernel/malloc.o(/home/liamgatter/dev/C/raptor-os/src/kernel/malloc.c): redefinition of _heap_addr ignored
Warning! W1027: file build/kernel/interrupts_c.o(/home/liamgatter/dev/C/raptor-os/src/kernel/interrupts.c): redefinition of _keyboard_state ignored
Warning! W1027: file build/kernel/main.o(/home/liamgatter/dev/C/raptor-os/src/kernel/main.c): redefinition of _panic_has_happened ignored
Warning! W1027: file build/kernel/main.o(/home/liamgatter/dev/C/raptor-os/src/kernel/main.c): redefinition of _safe_point ignored
Warning! W1027: file build/kernel/main.o(/home/liamgatter/dev/C/raptor-os/src/kernel/main.c): redefinition of _heap_addr ignored
Warning! W1027: file build/kernel/main.o(/home/liamgatter/dev/C/raptor-os/src/kernel/main.c): redefinition of _free_heap_blocks ignored
Warning! W1027: file build/kernel/main.o(/home/liamgatter/dev/C/raptor-os/src/kernel/main.c): redefinition of _heap_blocks ignored
Executable Image: build/kernel/kernel.bin
creating a RAW Binary Image executable


                        +------------+
                        |   Groups   |
                        +------------+

Group                           Address              Size
=====                           =======              ====

DGROUP                          000015ea             0000025c



                        +--------------+
                        |   Segments   |
                        +--------------+

Segment                Class          Group          Address         Size
=======                =====          =====          =======         ====

_ENTRY                 CODE           AUTO           00000000        0000017b
_TEXT                  CODE           AUTO           0000017b        0000146e
CONST                  DATA           DGROUP         000015ea        00000096
CONST2                 DATA           DGROUP         00001680        00000011
_DATA                  DATA           DGROUP         00001692        00000087
_EXTENDED,             DATA           AUTO           00001719        00000000
_BSS                   BSS            DGROUP         0000171a        0000012c


                        +----------------+
                        |   Memory Map   |
                        +----------------+

* = unreferenced symbol
+ = symbol only referenced locally

Address        Symbol
=======        ======

Module: build/kernel/keyboard.o(/home/liamgatter/dev/C/raptor-os/src/kernel/keyboard.c)
0000017b+      scan_code_as_ascii_
00000186+      getk_
000001b3       waitk_
000001ca*      update_keyboard_
000001fd*      init_keyboard_
0000020e*      getc_
00001692+      _kbd_US
0000171a+      _keyboard_state
Module: build/kernel/fs.o(/home/liamgatter/dev/C/raptor-os/src/kernel/fs.c)
00000219*      LBA_TO_CHS_
00000219*      get_hpc_
0000021a*      write_bytes_to_disk_
0000025a*      read_bytes_from_disk_
0000029c+      parse_files_
0000052d       init_disk_
000005dd+      find_file_
00000663       read_file_
000006a4*      read_null_terminated_file_
0000070c       write_file_
000007e8       flush_disk_
0000091a*      remove_file_
0000179a       _free_heap_blocks
0000179e       _heap_blocks
000017a2       _heap_addr
Module: build/kernel/printf.o(/home/liamgatter/dev/C/raptor-os/src/kernel/printf.c)
000009bf       strlen_
000009d8+      _putc_
000009e4+      _puts_
000009f6+      puts_f_
00000a17       _printf
00000b3b*      _fprintf
00000c5f+      printf_number_
00001680+      _g_HexChars
Module: build/kernel/malloc.o(/home/liamgatter/dev/C/raptor-os/src/kernel/malloc.c)
00000dfb       mkstr_
00000e45       init_heap_
00000ea0       malloc_
0000104c       free_
000010fc*      print_blocks_
00001166       memset_
0000119e*      reverse_
000011e3*      realloc_
0000121f       memcpy_
0000125e*      memcmp_
0000129f       strcmp_
000017a6+      _num_block
000017aa+      _num_free
Module: build/kernel/interrupts_c.o(/home/liamgatter/dev/C/raptor-os/src/kernel/interrupts.c)
000012be*      _set_safe_point
000012cc       div0_handler_
000012d2+      panic_
000012f5       critical_error_handler_
00001310       install_interrupt_
00001320*      int21H_
00001712+      _panic_has_happened
00001713+      _safe_point
Module: build/kernel/sys.o(/home/liamgatter/dev/C/raptor-os/src/kernel/sys.c)
00001369       cli_
00001375*      sti_
0000137d*      hlt_
00001388*      reboot_
000013a9       get_register_
Module: build/kernel/interrupts.o(src/kernel/interrupts.asm)
000013ec*      _store_idt_addr
000013fe       _set_ivt
Module: build/kernel/devices.o(/home/liamgatter/dev/C/raptor-os/src/kernel/devices.c)
00001431       send_byte_
00001482*      send_bytes_
Module: build/kernel/io_c.o(/home/liamgatter/dev/C/raptor-os/src/kernel/io/io.c)
000014de*      puts_
0000150c*      putsf_
Module: build/kernel/main_asm.o(src/kernel/main.asm)
00000000       entry
0000000b*      _set_safepoint
00000017       _jump
00000028       _get_heap
00000042       _div64
00000070*      _reset_disk
0000007e       _write_sect
000000b5       _read_sect
000000ec       _outb
000000fa       _inb
00000105*      _init_pit
00000117*      _init_pic
0000013a*      __U4D
00000161       __U4M
Module: build/kernel/main.o(/home/liamgatter/dev/C/raptor-os/src/kernel/main.c)
00001540       _main_
Module: build/kernel/io.o(src/kernel/io/io.asm)
000015ca       _video_mode
000015d8       _putc


                        +---------------------+
                        |   Module Segments   |
                        +---------------------+

! = 32-bit segment
c = initialized communal data

Module          Segment               Class           Address         Size
======          =======               =====           =======         ====

/home/liamgatter/dev/C/raptor-os/src/kernel/keyboard.c
                _TEXT                 CODE           0000017b         0000009e
                CONST                 DATA           000015ea         00000000
                CONST2                DATA           00001680         00000000
                _DATA                 DATA           00001692         00000080
                _BSS                  BSS            0000171a         00000080
/home/liamgatter/dev/C/raptor-os/src/kernel/fs.c
                _TEXT                 CODE           00000219         000007a6
                CONST                 DATA           000015ea         00000000
                CONST2                DATA           00001680         00000000
                _DATA                 DATA           00001712         00000000
                _BSS                  BSS            0000179a         0000000c
/home/liamgatter/dev/C/raptor-os/src/kernel/printf.c
                _TEXT                 CODE           000009bf         0000043c
                CONST                 DATA           000015ea         00000000
                CONST2                DATA           00001680         00000011
                _DATA                 DATA           00001712         00000000
/home/liamgatter/dev/C/raptor-os/src/kernel/malloc.c
                _TEXT                 CODE           00000dfb         000004c3
                CONST                 DATA           000015ea         00000031
                CONST2                DATA           00001692         00000000
                _DATA                 DATA           00001712         00000000
                _BSS                  BSS            000017a6         00000014
/home/liamgatter/dev/C/raptor-os/src/kernel/interrupts.c
                _TEXT                 CODE           000012be         000000ab
                CONST                 DATA           0000161c         0000003f
                CONST2                DATA           00001692         00000000
                _DATA                 DATA           00001712         00000003
                _BSS                  BSS            000017ba         00000080
/home/liamgatter/dev/C/raptor-os/src/kernel/sys.c
                _TEXT                 CODE           00001369         00000083
                CONST                 DATA           0000165c         00000000
                CONST2                DATA           00001692         00000000
                _DATA                 DATA           00001716         00000000
src/kernel/interrupts.asm
                _TEXT                 CODE           000013ec         0000003d
/home/liamgatter/dev/C/raptor-os/src/kernel/devices.c
                _TEXT                 CODE           00001429         000000b5
                CONST                 DATA           0000165c         00000000
                CONST2                DATA           00001692         00000000
                _DATA                 DATA           00001716         00000000
/home/liamgatter/dev/C/raptor-os/src/kernel/io/io.c
                _TEXT                 CODE           000014de         00000062
                CONST                 DATA           0000165c         00000000
                CONST2                DATA           00001692         00000000
                _DATA                 DATA           00001716         00000000
src/kernel/main.asm
                _ENTRY                CODE           00000000         0000017b
src/kernel/extend.asm
                _EXTENDED,            DATA           00001719         00000000
/home/liamgatter/dev/C/raptor-os/src/kernel/main.c
                _TEXT                 CODE           00001540         0000008a
                CONST                 DATA           0000165c         00000024
                CONST2                DATA           00001692         00000000
                _DATA                 DATA           00001716         00000003
                _BSS                  BSS            0000183a         0000000c
src/kernel/io/io.asm
                _TEXT                 CODE           000015ca         0000001f
Warning! W1014: stack segment not found
Error! E2063: file build/kernel/interrupts_c.o(/home/liamgatter/dev/C/raptor-os/src/kernel/interrupts.c): invalid relocation for flat memory model at 0000132e
